; Function Attrs: mustprogress uwtable
define hidden void @_ZN6google8protobuf8internal29CodedOutputStreamFieldSkipper15SkipUnknownEnumEii(ptr noundef nonnull readonly align 8 captures(none) dereferenceable(16) %0, i32 noundef %1, i32 noundef %2) unnamed_addr #3 align 2 {
  %4 = getelementptr inbounds nuw i8, ptr %0, i64 8
  %5 = load ptr, ptr %4, align 8, !tbaa !37
  %6 = getelementptr inbounds nuw i8, ptr %5, i64 64
  %7 = load ptr, ptr %6, align 8, !tbaa !20
  %8 = load ptr, ptr %5, align 8, !tbaa !25
  %.not.i.i = icmp ult ptr %7, %8
  br i1 %.not.i.i, label %_ZN6google8protobuf2io19EpsCopyOutputStream11EnsureSpaceEPh.exit.i, label %9, !prof !15

9:                                                ; preds = %3
  %10 = tail call noundef ptr @_ZN6google8protobuf2io19EpsCopyOutputStream19EnsureSpaceFallbackEPh(ptr noundef nonnull align 8 dereferenceable(80) %5, ptr noundef %7)
  br label %_ZN6google8protobuf2io19EpsCopyOutputStream11EnsureSpaceEPh.exit.i

_ZN6google8protobuf2io19EpsCopyOutputStream11EnsureSpaceEPh.exit.i: ; preds = %9, %3
  %.0.i.i = phi ptr [ %10, %9 ], [ %7, %3 ]
  store ptr %.0.i.i, ptr %6, align 8, !tbaa !20
  %11 = trunc i32 %1 to i8
  store i8 %11, ptr %.0.i.i, align 1, !tbaa !16
  %12 = icmp ult i32 %1, 128
  br i1 %12, label %13, label %15

13:                                               ; preds = %_ZN6google8protobuf2io19EpsCopyOutputStream11EnsureSpaceEPh.exit.i
  %14 = getelementptr inbounds nuw i8, ptr %.0.i.i, i64 1
  br label %_ZN6google8protobuf2io17CodedOutputStream13WriteVarint32Ej.exit

15:                                               ; preds = %_ZN6google8protobuf2io19EpsCopyOutputStream11EnsureSpaceEPh.exit.i
  %16 = or i8 %11, -128
  store i8 %16, ptr %.0.i.i, align 1, !tbaa !16
  %17 = lshr i32 %1, 7
  %18 = trunc i32 %17 to i8
  %19 = getelementptr inbounds nuw i8, ptr %.0.i.i, i64 1
  store i8 %18, ptr %19, align 1, !tbaa !16
  %20 = icmp ult i32 %1, 16384
  %21 = getelementptr inbounds nuw i8, ptr %.0.i.i, i64 2
  br i1 %20, label %_ZN6google8protobuf2io17CodedOutputStream13WriteVarint32Ej.exit, label %.preheader.i.preheader

.preheader.i.preheader:                           ; preds = %15
  %scevgep13 = getelementptr i8, ptr %.0.i.i, i64 1
  %load_initial14 = load i8, ptr %scevgep13, align 1
  br label %.preheader.i

.preheader.i:                                     ; preds = %.preheader.i.preheader, %.preheader.i
  %store_forwarded15 = phi i8 [ %load_initial14, %.preheader.i.preheader ], [ %25, %.preheader.i ]
  %.018.i.i.i = phi i32 [ %17, %.preheader.i.preheader ], [ %24, %.preheader.i ]
  %.0.i.i.i = phi ptr [ %21, %.preheader.i.preheader ], [ %26, %.preheader.i ]
  %22 = getelementptr inbounds i8, ptr %.0.i.i.i, i64 -1
  %23 = or i8 %store_forwarded15, -128
  store i8 %23, ptr %22, align 1, !tbaa !16
  %24 = lshr i32 %.018.i.i.i, 7
  %25 = trunc i32 %24 to i8
  store i8 %25, ptr %.0.i.i.i, align 1, !tbaa !16
  %26 = getelementptr inbounds nuw i8, ptr %.0.i.i.i, i64 1
  %27 = icmp samesign ugt i32 %.018.i.i.i, 16383
  br i1 %27, label %.preheader.i, label %_ZN6google8protobuf2io17CodedOutputStream13WriteVarint32Ej.exit, !llvm.loop !26

_ZN6google8protobuf2io17CodedOutputStream13WriteVarint32Ej.exit: ; preds = %.preheader.i, %13, %15
  %.019.i.i.i = phi ptr [ %14, %13 ], [ %21, %15 ], [ %26, %.preheader.i ]
  store ptr %.019.i.i.i, ptr %6, align 8, !tbaa !20
  %28 = load ptr, ptr %4, align 8, !tbaa !37
  %29 = sext i32 %2 to i64
  %30 = getelementptr inbounds nuw i8, ptr %28, i64 64
  %31 = load ptr, ptr %30, align 8, !tbaa !20
  %32 = load ptr, ptr %28, align 8, !tbaa !25
  %.not.i.i2 = icmp ult ptr %31, %32
  br i1 %.not.i.i2, label %_ZN6google8protobuf2io19EpsCopyOutputStream11EnsureSpaceEPh.exit.i3, label %33, !prof !15

33:                                               ; preds = %_ZN6google8protobuf2io17CodedOutputStream13WriteVarint32Ej.exit
  %34 = tail call noundef ptr @_ZN6google8protobuf2io19EpsCopyOutputStream19EnsureSpaceFallbackEPh(ptr noundef nonnull align 8 dereferenceable(80) %28, ptr noundef %31)
  br label %_ZN6google8protobuf2io19EpsCopyOutputStream11EnsureSpaceEPh.exit.i3

_ZN6google8protobuf2io19EpsCopyOutputStream11EnsureSpaceEPh.exit.i3: ; preds = %33, %_ZN6google8protobuf2io17CodedOutputStream13WriteVarint32Ej.exit
  %.0.i.i4 = phi ptr [ %34, %33 ], [ %31, %_ZN6google8protobuf2io17CodedOutputStream13WriteVarint32Ej.exit ]
  store ptr %.0.i.i4, ptr %30, align 8, !tbaa !20
  %35 = trunc i32 %2 to i8
  store i8 %35, ptr %.0.i.i4, align 1, !tbaa !16
  %36 = icmp ult i32 %2, 128
  br i1 %36, label %37, label %39

37:                                               ; preds = %_ZN6google8protobuf2io19EpsCopyOutputStream11EnsureSpaceEPh.exit.i3
  %38 = getelementptr inbounds nuw i8, ptr %.0.i.i4, i64 1
  br label %_ZN6google8protobuf2io17CodedOutputStream13WriteVarint64Em.exit

39:                                               ; preds = %_ZN6google8protobuf2io19EpsCopyOutputStream11EnsureSpaceEPh.exit.i3
  %40 = or i8 %35, -128
  store i8 %40, ptr %.0.i.i4, align 1, !tbaa !16
  %41 = lshr i64 %29, 7
  %42 = trunc i64 %41 to i8
  %43 = getelementptr inbounds nuw i8, ptr %.0.i.i4, i64 1
  store i8 %42, ptr %43, align 1, !tbaa !16
  %44 = icmp ult i32 %2, 16384
  %45 = getelementptr inbounds nuw i8, ptr %.0.i.i4, i64 2
  br i1 %44, label %_ZN6google8protobuf2io17CodedOutputStream13WriteVarint64Em.exit, label %.preheader.i5.preheader

.preheader.i5.preheader:                          ; preds = %39
  %scevgep = getelementptr i8, ptr %.0.i.i4, i64 1
  %load_initial = load i8, ptr %scevgep, align 1
  br label %.preheader.i5

.preheader.i5:                                    ; preds = %.preheader.i5.preheader, %.preheader.i5
  %store_forwarded = phi i8 [ %load_initial, %.preheader.i5.preheader ], [ %49, %.preheader.i5 ]
  %.018.i.i.i6 = phi i64 [ %41, %.preheader.i5.preheader ], [ %48, %.preheader.i5 ]
  %.0.i.i.i7 = phi ptr [ %45, %.preheader.i5.preheader ], [ %50, %.preheader.i5 ]
  %46 = getelementptr inbounds i8, ptr %.0.i.i.i7, i64 -1
  %47 = or i8 %store_forwarded, -128
  store i8 %47, ptr %46, align 1, !tbaa !16
  %48 = lshr i64 %.018.i.i.i6, 7
  %49 = trunc i64 %48 to i8
  store i8 %49, ptr %.0.i.i.i7, align 1, !tbaa !16
  %50 = getelementptr inbounds nuw i8, ptr %.0.i.i.i7, i64 1
  %51 = icmp samesign ugt i64 %.018.i.i.i6, 16383
  br i1 %51, label %.preheader.i5, label %_ZN6google8protobuf2io17CodedOutputStream13WriteVarint64Em.exit, !llvm.loop !28

_ZN6google8protobuf2io17CodedOutputStream13WriteVarint64Em.exit: ; preds = %.preheader.i5, %37, %39
  %.019.i.i.i8 = phi ptr [ %38, %37 ], [ %45, %39 ], [ %50, %.preheader.i5 ]
  store ptr %.019.i.i.i8, ptr %30, align 8, !tbaa !20
  ret void
}